target datalayout = "e-m:e-p270:32:32-p271:32:32-p272:64:64-i64:64-i128:128-f80:128-n8:16:32:64-S128"
target triple = "x86_64-pc-linux-gnu"

%struct.H5FS_t = type { %struct.H5C_cache_entry_t, i64, i64, i64, i64, i32, i16, i32, i32, i32, i64, i64, i64, i64, i32, i64, i64, ptr, i8, i32, i8, i8, i32, i64, i64, i64, ptr }
%struct.H5C_cache_entry_t = type { ptr, i64, i64, ptr, i8, ptr, i8, i8, i8, i8, i32, i8, i8, i8, i8, i8, i32, ptr, i32, i32, i32, i32, i32, i8, i8, ptr, ptr, ptr, ptr, ptr, ptr, i8, i32, i8, i64, ptr, i64, i64, i32, i8, i32, i32, i8, ptr, ptr, ptr }
%struct.H5FS_section_info_t = type { i64, i64, i32, i32 }
%struct.H5FS_section_class_t = type { i32, i64, i32, ptr, ptr, ptr, ptr, ptr, ptr, ptr, ptr, ptr, ptr, ptr, ptr, ptr, ptr }

@H5FS_init_g = external global i8, align 1
@H5_libterm_g = external global i8, align 1
@.str = private unnamed_addr constant [101 x i8] c"generated/home/dtcxzyw/WorkSpace/Projects/compilers/llvm-opt-benchmark/bench/hdf5/hdf5/src/H5FSdbg.c\00", align 1
@H5E_FSPACE_g = external global i64, align 8
@__func__.H5FS_sect_debug = private unnamed_addr constant [16 x i8] c"H5FS_sect_debug\00", align 1
@H5E_BADITER_g = external global i64, align 8
@.str.25 = private unnamed_addr constant [36 x i8] c"can't dump section's debugging info\00", align 1

; Function Attrs: nounwind uwtable
define i32 @H5FS_sect_debug(ptr noundef %0, ptr noundef %1, ptr noundef %2, i32 noundef %3, i32 noundef %4) #0 {
  %6 = alloca ptr, align 8
  %7 = alloca ptr, align 8
  %8 = alloca ptr, align 8
  %9 = alloca i32, align 4
  %10 = alloca i32, align 4
  %11 = alloca i32, align 4
  %12 = alloca i8, align 1
  store ptr %0, ptr %6, align 8, !tbaa !14
  store ptr %1, ptr %7, align 8, !tbaa !51
  store ptr %2, ptr %8, align 8, !tbaa !10
  store i32 %3, ptr %9, align 4, !tbaa !12
  store i32 %4, ptr %10, align 4, !tbaa !12
  call void @llvm.lifetime.start.p0(i64 4, ptr %11) #5
  store i32 0, ptr %11, align 4, !tbaa !12
  call void @llvm.lifetime.start.p0(i64 1, ptr %12) #5
  store i8 0, ptr %12, align 1, !tbaa !16
  %13 = load i8, ptr @H5FS_init_g, align 1, !tbaa !16, !range !18, !noundef !19
  %14 = trunc i8 %13 to i1
  br i1 %14, label %19, label %15

15:                                               ; preds = %5
  %16 = load i8, ptr @H5_libterm_g, align 1, !tbaa !16, !range !18, !noundef !19
  %17 = trunc i8 %16 to i1
  %18 = xor i1 %17, true
  br label %19

19:                                               ; preds = %15, %5
  %20 = phi i1 [ false, %5 ], [ %18, %15 ]
  %21 = xor i1 %20, true
  %22 = xor i1 %21, true
  %23 = zext i1 %22 to i32
  %24 = sext i32 %23 to i64
  %25 = call i64 @llvm.expect.i64(i64 %24, i64 0)
  %26 = icmp ne i64 %25, 0
  br i1 %26, label %27, label %28

27:                                               ; preds = %19
  store i8 1, ptr @H5FS_init_g, align 1, !tbaa !16
  br label %28

28:                                               ; preds = %27, %19
  %29 = load i8, ptr @H5FS_init_g, align 1, !tbaa !16, !range !18, !noundef !19
  %30 = trunc i8 %29 to i1
  br i1 %30, label %35, label %31

31:                                               ; preds = %28
  %32 = load i8, ptr @H5_libterm_g, align 1, !tbaa !16, !range !18, !noundef !19
  %33 = trunc i8 %32 to i1
  %34 = xor i1 %33, true
  br label %35

35:                                               ; preds = %31, %28
  %36 = phi i1 [ true, %28 ], [ %34, %31 ]
  %37 = xor i1 %36, true
  %38 = xor i1 %37, true
  %39 = zext i1 %38 to i32
  %40 = sext i32 %39 to i64
  %41 = call i64 @llvm.expect.i64(i64 %40, i64 1)
  %42 = icmp ne i64 %41, 0
  br i1 %42, label %43, label %94

43:                                               ; preds = %35
  %44 = load ptr, ptr %6, align 8, !tbaa !14
  %45 = getelementptr inbounds nuw %struct.H5FS_t, ptr %44, i32 0, i32 26
  %46 = load ptr, ptr %45, align 8, !tbaa !53
  %47 = load ptr, ptr %7, align 8, !tbaa !51
  %48 = getelementptr inbounds nuw %struct.H5FS_section_info_t, ptr %47, i32 0, i32 2
  %49 = load i32, ptr %48, align 8, !tbaa !54
  %50 = zext i32 %49 to i64
  %51 = getelementptr inbounds nuw %struct.H5FS_section_class_t, ptr %46, i64 %50
  %52 = getelementptr inbounds nuw %struct.H5FS_section_class_t, ptr %51, i32 0, i32 16
  %53 = load ptr, ptr %52, align 8, !tbaa !56
  %54 = icmp ne ptr %53, null
  br i1 %54, label %55, label %92

55:                                               ; preds = %43
  %56 = load ptr, ptr %6, align 8, !tbaa !14
  %57 = getelementptr inbounds nuw %struct.H5FS_t, ptr %56, i32 0, i32 26
  %58 = load ptr, ptr %57, align 8, !tbaa !53
  %59 = load ptr, ptr %7, align 8, !tbaa !51
  %60 = getelementptr inbounds nuw %struct.H5FS_section_info_t, ptr %59, i32 0, i32 2
  %61 = load i32, ptr %60, align 8, !tbaa !54
  %62 = zext i32 %61 to i64
  %63 = getelementptr inbounds nuw %struct.H5FS_section_class_t, ptr %58, i64 %62
  %64 = getelementptr inbounds nuw %struct.H5FS_section_class_t, ptr %63, i32 0, i32 16
  %65 = load ptr, ptr %64, align 8, !tbaa !56
  %66 = load ptr, ptr %7, align 8, !tbaa !51
  %67 = load ptr, ptr %8, align 8, !tbaa !10
  %68 = load i32, ptr %9, align 4, !tbaa !12
  %69 = load i32, ptr %10, align 4, !tbaa !12
  %70 = call i32 %65(ptr noundef %66, ptr noundef %67, i32 noundef %68, i32 noundef %69)
  %71 = icmp slt i32 %70, 0
  br i1 %71, label %72, label %91

72:                                               ; preds = %55
  br label %73

73:                                               ; preds = %72
  br label %74

74:                                               ; preds = %73
  br label %75

75:                                               ; preds = %74
  %76 = load i64, ptr @H5E_FSPACE_g, align 8, !tbaa !8
  %77 = load i64, ptr @H5E_BADITER_g, align 8, !tbaa !8
  %78 = call i32 (ptr, ptr, i32, i64, i64, ptr, ...) @H5E_printf_stack(ptr noundef @.str, ptr noundef @__func__.H5FS_sect_debug, i32 noundef 176, i64 noundef %76, i64 noundef %77, ptr noundef @.str.25)
  br label %79

79:                                               ; preds = %75
  br label %80

80:                                               ; preds = %79
  store i8 1, ptr %12, align 1, !tbaa !16
  %81 = load i8, ptr %12, align 1, !tbaa !16, !range !18, !noundef !19
  %82 = trunc i8 %81 to i1
  %83 = zext i1 %82 to i8
  store i8 %83, ptr %12, align 1, !tbaa !16
  br label %84

84:                                               ; preds = %80
  br label %85

85:                                               ; preds = %84
  br label %86

86:                                               ; preds = %85
  store i32 -1, ptr %11, align 4, !tbaa !12
  br label %93

87:                                               ; No predecessors!
  br label %88

88:                                               ; preds = %87
  br label %89

89:                                               ; preds = %88
  br label %90

90:                                               ; preds = %89
  br label %91

91:                                               ; preds = %90, %55
  br label %92

92:                                               ; preds = %91, %43
  br label %93

93:                                               ; preds = %92, %86
  br label %94

94:                                               ; preds = %93, %35
  %95 = load i32, ptr %11, align 4, !tbaa !12
  call void @llvm.lifetime.end.p0(i64 1, ptr %12) #5
  call void @llvm.lifetime.end.p0(i64 4, ptr %11) #5
  ret i32 %95
}